target datalayout = "e-m:e-p270:32:32-p271:32:32-p272:64:64-i64:64-i128:128-f80:128-n8:16:32:64-S128"
target triple = "x86_64-pc-linux-gnu"

%struct.Gem_Man_t_ = type { i32, i32, i32, i32, ptr, ptr, ptr, i32 }
%struct.Gem_Obj_t_ = type { i32, i32 }

@.str.5 = private unnamed_addr constant [72 x i8] c"Hard limit on the number of nodes (0x7FFFFFFF) is reached. Quitting...\0A\00", align 1
@.str.6 = private unnamed_addr constant [37 x i8] c"Extending object storage: %d -> %d.\0A\00", align 1

; Function Attrs: inlinehint nounwind uwtable
define internal i32 @Abc_MinInt(i32 noundef %0, i32 noundef %1) #4 {
  %3 = alloca i32, align 4
  %4 = alloca i32, align 4
  store i32 %0, ptr %3, align 4, !tbaa !8
  store i32 %1, ptr %4, align 4, !tbaa !8
  %5 = load i32, ptr %3, align 4, !tbaa !8
  %6 = load i32, ptr %4, align 4, !tbaa !8
  %7 = icmp slt i32 %5, %6
  br i1 %7, label %8, label %10

8:                                                ; preds = %2
  %9 = load i32, ptr %3, align 4, !tbaa !8
  br label %12

10:                                               ; preds = %2
  %11 = load i32, ptr %4, align 4, !tbaa !8
  br label %12

12:                                               ; preds = %10, %8
  %13 = phi i32 [ %9, %8 ], [ %11, %10 ]
  ret i32 %13
}

; Function Attrs: nounwind uwtable
define void @Gem_ManRealloc(ptr noundef %0) #0 {
  %2 = alloca ptr, align 8
  %3 = alloca i32, align 4
  store ptr %0, ptr %2, align 8, !tbaa !3
  call void @llvm.lifetime.start.p0(i64 4, ptr %3) #13
  %4 = load ptr, ptr %2, align 8, !tbaa !3
  %5 = getelementptr inbounds nuw %struct.Gem_Man_t_, ptr %4, i32 0, i32 2
  %6 = load i32, ptr %5, align 8, !tbaa !25
  %7 = mul nsw i32 2, %6
  %8 = call i32 @Abc_MinInt(i32 noundef %7, i32 noundef 2147483647)
  store i32 %8, ptr %3, align 4, !tbaa !8
  %9 = load ptr, ptr %2, align 8, !tbaa !3
  %10 = getelementptr inbounds nuw %struct.Gem_Man_t_, ptr %9, i32 0, i32 3
  %11 = load i32, ptr %10, align 4, !tbaa !26
  %12 = icmp eq i32 %11, 2147483647
  br i1 %12, label %13, label %15

13:                                               ; preds = %1
  %14 = call i32 (ptr, ...) @printf(ptr noundef @.str.5)
  call void @exit(i32 noundef 1) #16
  unreachable

15:                                               ; preds = %1
  %16 = load ptr, ptr %2, align 8, !tbaa !3
  %17 = getelementptr inbounds nuw %struct.Gem_Man_t_, ptr %16, i32 0, i32 2
  %18 = load i32, ptr %17, align 8, !tbaa !25
  %19 = load i32, ptr %3, align 4, !tbaa !8
  %20 = call i32 (ptr, ...) @printf(ptr noundef @.str.6, i32 noundef %18, i32 noundef %19)
  %21 = load ptr, ptr %2, align 8, !tbaa !3
  %22 = getelementptr inbounds nuw %struct.Gem_Man_t_, ptr %21, i32 0, i32 4
  %23 = load ptr, ptr %22, align 8, !tbaa !12
  %24 = icmp ne ptr %23, null
  br i1 %24, label %25, label %33

25:                                               ; preds = %15
  %26 = load ptr, ptr %2, align 8, !tbaa !3
  %27 = getelementptr inbounds nuw %struct.Gem_Man_t_, ptr %26, i32 0, i32 4
  %28 = load ptr, ptr %27, align 8, !tbaa !12
  %29 = load i32, ptr %3, align 4, !tbaa !8
  %30 = sext i32 %29 to i64
  %31 = mul i64 8, %30
  %32 = call ptr @realloc(ptr noundef %28, i64 noundef %31) #17
  br label %38

33:                                               ; preds = %15
  %34 = load i32, ptr %3, align 4, !tbaa !8
  %35 = sext i32 %34 to i64
  %36 = mul i64 8, %35
  %37 = call noalias ptr @malloc(i64 noundef %36) #15
  br label %38

38:                                               ; preds = %33, %25
  %39 = phi ptr [ %32, %25 ], [ %37, %33 ]
  %40 = load ptr, ptr %2, align 8, !tbaa !3
  %41 = getelementptr inbounds nuw %struct.Gem_Man_t_, ptr %40, i32 0, i32 4
  store ptr %39, ptr %41, align 8, !tbaa !12
  %42 = load ptr, ptr %2, align 8, !tbaa !3
  %43 = getelementptr inbounds nuw %struct.Gem_Man_t_, ptr %42, i32 0, i32 4
  %44 = load ptr, ptr %43, align 8, !tbaa !12
  %45 = load ptr, ptr %2, align 8, !tbaa !3
  %46 = getelementptr inbounds nuw %struct.Gem_Man_t_, ptr %45, i32 0, i32 2
  %47 = load i32, ptr %46, align 8, !tbaa !25
  %48 = sext i32 %47 to i64
  %49 = getelementptr inbounds %struct.Gem_Obj_t_, ptr %44, i64 %48
  %50 = load i32, ptr %3, align 4, !tbaa !8
  %51 = load ptr, ptr %2, align 8, !tbaa !3
  %52 = getelementptr inbounds nuw %struct.Gem_Man_t_, ptr %51, i32 0, i32 2
  %53 = load i32, ptr %52, align 8, !tbaa !25
  %54 = sub nsw i32 %50, %53
  %55 = sext i32 %54 to i64
  %56 = mul i64 8, %55
  call void @llvm.memset.p0.i64(ptr align 4 %49, i8 0, i64 %56, i1 false)
  %57 = load i32, ptr %3, align 4, !tbaa !8
  %58 = load ptr, ptr %2, align 8, !tbaa !3
  %59 = getelementptr inbounds nuw %struct.Gem_Man_t_, ptr %58, i32 0, i32 2
  store i32 %57, ptr %59, align 8, !tbaa !25
  call void @llvm.lifetime.end.p0(i64 4, ptr %3) #13
  ret void
}