; Function Attrs: nounwind uwtable
define void @Gem_ManRealloc(ptr noundef captures(none) %0) local_unnamed_addr #0 {
  %2 = getelementptr inbounds nuw i8, ptr %0, i64 8
  %3 = load i32, ptr %2, align 8, !tbaa !20
  %4 = shl nsw i32 %3, 1
  %5 = getelementptr inbounds nuw i8, ptr %0, i64 12
  %6 = load i32, ptr %5, align 4, !tbaa !21
  %7 = icmp eq i32 %6, 2147483647
  br i1 %7, label %8, label %9

8:                                                ; preds = %1
  %puts = tail call i32 @puts(ptr nonnull dereferenceable(1) @str)
  tail call void @exit(i32 noundef 1) #25
  unreachable

9:                                                ; preds = %1
  %10 = tail call i32 (ptr, ...) @printf(ptr noundef nonnull dereferenceable(1) @.str.6, i32 noundef %3, i32 noundef %4)
  %11 = getelementptr inbounds nuw i8, ptr %0, i64 16
  %12 = load ptr, ptr %11, align 8, !tbaa !3
  %.not = icmp eq ptr %12, null
  %13 = sext i32 %4 to i64
  %14 = shl nsw i64 %13, 3
  br i1 %.not, label %17, label %15

15:                                               ; preds = %9
  %16 = tail call ptr @realloc(ptr noundef nonnull %12, i64 noundef %14) #26
  br label %19

17:                                               ; preds = %9
  %18 = tail call noalias ptr @malloc(i64 noundef %14) #24
  br label %19

19:                                               ; preds = %17, %15
  %20 = phi ptr [ %16, %15 ], [ %18, %17 ]
  store ptr %20, ptr %11, align 8, !tbaa !3
  %21 = load i32, ptr %2, align 8, !tbaa !20
  %22 = sext i32 %21 to i64
  %23 = getelementptr inbounds %struct.Gem_Obj_t_, ptr %20, i64 %22
  %24 = sub nsw i32 %4, %21
  %25 = sext i32 %24 to i64
  %26 = shl nsw i64 %25, 3
  tail call void @llvm.memset.p0.i64(ptr align 4 %23, i8 0, i64 %26, i1 false)
  store i32 %4, ptr %2, align 8, !tbaa !20
  ret void
}